(lp0
(dp1
Vtopics
p2
(lp3
(dp4
Vid
p5
V531770282589057025
p6
sVtitle
p7
VDesktop Software Development
p8
sa(dp9
Vid
p10
V531770282589057026
p11
sVtitle
p12
VEcommerce Development
p13
sa(dp14
Vid
p15
V531770282589057027
p16
sVtitle
p17
VGame Development
p18
sa(dp19
Vid
p20
V531770282589057024
p21
sVtitle
p22
VMobile Development
p23
sa(dp24
Vid
p25
V531770282589057030
p26
sVtitle
p27
VProduct Management
p28
sa(dp29
Vid
p30
V531770282589057031
p31
sVtitle
p32
VQA & Testing
p33
sa(dp34
Vid
p35
V531770282589057028
p36
sVtitle
p37
VScripts & Utilities
p38
sa(dp39
Vid
p40
V531770282584862733
p41
sVtitle
p42
VWeb Development
p43
sa(dp44
Vid
p45
V531770282589057029
p46
sVtitle
p47
VWeb & Mobile Design
p48
sa(dp49
Vid
p50
V531770282589057032
p51
sVtitle
p52
VOther - Software Development
p53
sasVid
p54
V531770282580668418
p55
sVtitle
p56
VWeb, Mobile & Software Dev
p57
sa(dp58
Vtopics
p59
(lp60
(dp61
Vid
p62
V531770282589057033
p63
sVtitle
p64
VDatabase Administration
p65
sa(dp66
Vid
p67
V531770282589057034
p68
sVtitle
p69
VERP / CRM Software
p70
sa(dp71
Vid
p72
V531770282589057036
p73
sVtitle
p74
VInformation Security
p75
sa(dp76
Vid
p77
V531770282589057035
p78
sVtitle
p79
VNetwork & System Administration
p80
sa(dp81
Vid
p82
V531770282589057037
p83
sVtitle
p84
VOther - IT & Networking
p85
sasVid
p86
V531770282580668419
p87
sVtitle
p88
VIT & Networking
p89
sa(dp90
Vtopics
p91
(lp92
(dp93
Vid
p94
V531770282593251330
p95
sVtitle
p96
VA/B Testing
p97
sa(dp98
Vid
p99
V531770282589057039
p100
sVtitle
p101
VData Visualization
p102
sa(dp103
Vid
p104
V531770282593251331
p105
sVtitle
p106
VData Extraction / ETL
p107
sa(dp108
Vid
p109
V531770282589057038
p110
sVtitle
p111
VData Mining & Management
p112
sa(dp113
Vid
p114
V531770282593251329
p115
sVtitle
p116
VMachine Learning
p117
sa(dp118
Vid
p119
V531770282593251328
p120
sVtitle
p121
VQuantitative Analysis
p122
sa(dp123
Vid
p124
V531770282593251332
p125
sVtitle
p126
VOther - Data Science & Analytics
p127
sasVid
p128
V531770282580668420
p129
sVtitle
p130
VData Science & Analytics
p131
sa(dp132
Vtopics
p133
(lp134
(dp135
Vid
p136
V531770282601639948
p137
sVtitle
p138
V3D Modeling & CAD
p139
sa(dp140
Vid
p141
V531770282601639949
p142
sVtitle
p143
VArchitecture
p144
sa(dp145
Vid
p146
V531770282605834240
p147
sVtitle
p148
VChemical Engineering
p149
sa(dp150
Vid
p151
V531770282601639950
p152
sVtitle
p153
VCivil & Structural Engineering
p154
sa(dp155
Vid
p156
V531770282605834241
p157
sVtitle
p158
VContract Manufacturing
p159
sa(dp160
Vid
p161
V531770282601639951
p162
sVtitle
p163
VElectrical Engineering
p164
sa(dp165
Vid
p166
V531770282605834242
p167
sVtitle
p168
VInterior Design
p169
sa(dp170
Vid
p171
V531770282601639952
p172
sVtitle
p173
VMechanical Engineering
p174
sa(dp175
Vid
p176
V531770282601639953
p177
sVtitle
p178
VProduct Design
p179
sa(dp180
Vid
p181
V531770282605834243
p182
sVtitle
p183
VOther - Engineering & Architecture
p184
sasVid
p185
V531770282584862722
p186
sVtitle
p187
VEngineering & Architecture
p188
sa(dp189
Vtopics
p190
(lp191
(dp192
Vid
p193
V531770282593251333
p194
sVtitle
p195
VAnimation
p196
sa(dp197
Vid
p198
V531770282593251341
p199
sVtitle
p200
VAudio Production
p201
sa(dp202
Vid
p203
V531770282593251334
p204
sVtitle
p205
VGraphic Design
p206
sa(dp207
Vid
p208
V531770282593251335
p209
sVtitle
p210
VIllustration
p211
sa(dp212
Vid
p213
V531770282593251336
p214
sVtitle
p215
VLogo Design & Branding
p216
sa(dp217
Vid
p218
V531770282593251340
p219
sVtitle
p220
VPhotography
p221
sa(dp222
Vid
p223
V531770282593251337
p224
sVtitle
p225
VPresentations
p226
sa(dp227
Vid
p228
V531770282593251338
p229
sVtitle
p230
VVideo Production
p231
sa(dp232
Vid
p233
V531770282593251339
p234
sVtitle
p235
VVoice Talent
p236
sa(dp237
Vid
p238
V531770282593251342
p239
sVtitle
p240
VOther - Design & Creative
p241
sasVid
p242
V531770282580668421
p243
sVtitle
p244
VDesign & Creative
p245
sa(dp246
Vtopics
p247
(lp248
(dp249
Vid
p250
V531770282597445648
p251
sVtitle
p252
VAcademic Writing & Research
p253
sa(dp254
Vid
p255
V531770282597445642
p256
sVtitle
p257
VArticle & Blog Writing
p258
sa(dp259
Vid
p260
V531770282597445643
p261
sVtitle
p262
VCopywriting
p263
sa(dp264
Vid
p265
V531770282597445645
p266
sVtitle
p267
VCreative Writing
p268
sa(dp269
Vid
p270
V531770282597445644
p271
sVtitle
p272
VEditing & Proofreading
p273
sa(dp274
Vid
p275
V531770282601639936
p276
sVtitle
p277
VGrant Writing
p278
sa(dp279
Vid
p280
V531770282601639937
p281
sVtitle
p282
VResumes & Cover Letters
p283
sa(dp284
Vid
p285
V531770282597445646
p286
sVtitle
p287
VTechnical Writing
p288
sa(dp289
Vid
p290
V531770282597445647
p291
sVtitle
p292
VWeb Content
p293
sa(dp294
Vid
p295
V531770282601639938
p296
sVtitle
p297
VOther - Writing
p298
sasVid
p299
V531770282580668423
p300
sVtitle
p301
VWriting
p302
sa(dp303
Vtopics
p304
(lp305
(dp306
Vid
p307
V531770282601639939
p308
sVtitle
p309
VGeneral Translation
p310
sa(dp311
Vid
p312
V531770282601639940
p313
sVtitle
p314
VLegal Translation
p315
sa(dp316
Vid
p317
V531770282601639942
p318
sVtitle
p319
VMedical Translation
p320
sa(dp321
Vid
p322
V531770282601639941
p323
sVtitle
p324
VTechnical Translation
p325
sasVid
p326
V531770282584862720
p327
sVtitle
p328
VTranslation
p329
sa(dp330
Vtopics
p331
(lp332
(dp333
Vid
p334
V531770282605834246
p335
sVtitle
p336
VContract Law
p337
sa(dp338
Vid
p339
V531770282605834245
p340
sVtitle
p341
VCorporate Law
p342
sa(dp343
Vid
p344
V531770282605834247
p345
sVtitle
p346
VCriminal Law
p347
sa(dp348
Vid
p349
V531770282605834248
p350
sVtitle
p351
VFamily Law
p352
sa(dp353
Vid
p354
V531770282605834244
p355
sVtitle
p356
VIntellectual Property Law
p357
sa(dp358
Vid
p359
V531770283692158976
p360
sVtitle
p361
VParalegal Services
p362
sa(dp363
Vid
p364
V531770283696353280
p365
sVtitle
p366
VOther - Legal
p367
sasVid
p368
V531770282584862723
p369
sVtitle
p370
VLegal
p371
sa(dp372
Vtopics
p373
(lp374
(dp375
Vid
p376
V531770282584862724
p377
sVtitle
p378
VData Entry
p379
sa(dp380
Vid
p381
V531770282584862725
p382
sVtitle
p383
VPersonal / Virtual Assistant
p384
sa(dp385
Vid
p386
V531770282584862728
p387
sVtitle
p388
VProject Management
p389
sa(dp390
Vid
p391
V531770282584862727
p392
sVtitle
p393
VTranscription
p394
sa(dp395
Vid
p396
V531770282584862726
p397
sVtitle
p398
VWeb Research
p399
sa(dp400
Vid
p401
V531770282584862729
p402
sVtitle
p403
VOther - Admin Support
p404
sasVid
p405
V531770282580668416
p406
sVtitle
p407
VAdmin Support
p408
sa(dp409
Vtopics
p410
(lp411
(dp412
Vid
p413
V531770282584862730
p414
sVtitle
p415
VCustomer Service
p416
sa(dp417
Vid
p418
V531770282584862731
p419
sVtitle
p420
VTechnical Support
p421
sa(dp422
Vid
p423
V531770282584862732
p424
sVtitle
p425
VOther - Customer Service
p426
sasVid
p427
V531770282580668417
p428
sVtitle
p429
VCustomer Service
p430
sa(dp431
Vtopics
p432
(lp433
(dp434
Vid
p435
V531770282597445636
p436
sVtitle
p437
VDisplay Advertising
p438
sa(dp439
Vid
p440
V531770282597445632
p441
sVtitle
p442
VEmail & Marketing Automation
p443
sa(dp444
Vid
p445
V531770282597445634
p446
sVtitle
p447
VLead Generation
p448
sa(dp449
Vid
p450
V531770282597445633
p451
sVtitle
p452
VMarket & Customer Research
p453
sa(dp454
Vid
p455
V531770282593251343
p456
sVtitle
p457
VMarketing Strategy
p458
sa(dp459
Vid
p460
V531770282593251344
p461
sVtitle
p462
VPublic Relations
p463
sa(dp464
Vid
p465
V531770282597445637
p466
sVtitle
p467
VSEM - Search Engine Marketing
p468
sa(dp469
Vid
p470
V531770282597445638
p471
sVtitle
p472
VSEO - Search Engine Optimization
p473
sa(dp474
Vid
p475
V531770282597445639
p476
sVtitle
p477
VSMM - Social Media Marketing
p478
sa(dp479
Vid
p480
V531770282597445635
p481
sVtitle
p482
VTelemarketing & Telesales
p483
sa(dp484
Vid
p485
V531770282597445641
p486
sVtitle
p487
VOther - Sales & Marketing
p488
sasVid
p489
V531770282580668422
p490
sVtitle
p491
VSales & Marketing
p492
sa(dp493
Vtopics
p494
(lp495
(dp496
Vid
p497
V531770282601639943
p498
sVtitle
p499
VAccounting
p500
sa(dp501
Vid
p502
V531770282601639945
p503
sVtitle
p504
VFinancial Planning
p505
sa(dp506
Vid
p507
V531770282601639946
p508
sVtitle
p509
VHuman Resources
p510
sa(dp511
Vid
p512
V531770282601639944
p513
sVtitle
p514
VManagement Consulting
p515
sa(dp516
Vid
p517
V531770282601639947
p518
sVtitle
p519
VOther - Accounting & Consulting
p520
sasVid
p521
V531770282584862721
p522
sVtitle
p523
VAccounting & Consulting
p524
sa.