(lp0
Vprimavera
p1
aVvcita
p2
aVexcel-vba
p3
aVhyperion
p4
aVrational-rose
p5
aVmicrosoft-connect
p6
aV.net-compact-framework
p7
aV.net-remoting
p8
aV1shoppingcart
p9
aV2d-design
p10
aVdocker
p11
aVadobe-audition
p12
aVadobe-captivate
p13
aVadobe-content-server
p14
aVadobe-creative-suite
p15
aVadobe-dreamweaver
p16
aVadobe-flash
p17
aVwebgl
p18
aVwebrtc
p19
aV3d-printing
p20
aV3d-rendering
p21
aVab-initio
p22
aVapache-mahout
p23
aVab-testing
p24
aVabaqus
p25
aVablecommerce
p26
aVableton-live
p27
aVacdsee
p28
aVacrylic-painting
p29
aVact
p30
aVlms
p31
aVactive-listening
p32
aVactivecollab
p33
aVactivex
p34
aVad-servers
p35
aVada
p36
aVado.net
p37
aVadobe-acrobat
p38
aVadobe-after-effects
p39
aVadobe-air
p40
aVadobe-flex
p41
aVadobe-framemaker
p42
aVadobe-golive
p43
aVadobe-illustrator
p44
aVadobe-indesign
p45
aVseo-writing
p46
aVarticulate-studio
p47
aVadobe-pagemaker
p48
aVadobe-photoshop
p49
aVadobe-soundbooth
p50
aVadobe-wallaby
p51
aVadvertising
p52
aVagriculture
p53
aVahmaric
p54
aValbum-cover-design
p55
aValtium-desiger
p56
aVamazon-rds
p57
aVamazon-s3
p58
aVamazon-web-services
p59
aVamerican-sign-language
p60
aVanimation
p61
aVansi-c
p62
aVansys
p63
aVapache-ant
p64
aVapache-camel
p65
aVapache-click
p66
aVapache-cocoon
p67
aVapache-cxf
p68
aVapache-hive
p69
aVapache-maven
p70
aVapache-ofbiz
p71
aVapache-poi
p72
aVapache-struts
p73
aVapache-thrift
p74
aVapache-tomcat
p75
aVapollo
p76
aVappfuse
p77
aVapple-ibooks
p78
aVapple-motion
p79
aVapple-uikit-framework
p80
aVapple-webobjects
p81
aVapplescript
p82
aVapplicant-tracking-systems
p83
aVappointment-setting
p84
aVarbitration
p85
aVarcgis
p86
aVarchicad
p87
aVarchitectural-design
p88
aVarduino
p89
aVart-direction
p90
aVarticulate-presenter
p91
aVartificial-neural-networks
p92
aVartisteer
p93
aVastrology
p94
aVartlantis-render
p95
aVartlantis-studio
p96
aVartrage
p97
aVasp.net
p98
aVaspdotnetstorefront
p99
aVaspen-hysys
p100
aVasynchronous-io
p101
aVatlassian-confluence
p102
aVatlassian-greenhopper
p103
aVatmel-avr
p104
aVauctiva
p105
aVaudacity
p106
aVaudio-restoration
p107
aVgravity-forms
p108
aVautodesk-inventor
p109
aVautodesk-sketchbook-pro
p110
aVautodesk-softimage
p111
aVautodys-accelicad
p112
aVautohotkey
p113
aVautolisp
p114
aVautomated-call-distribution
p115
aVautomotive-engineering
p116
aVavactis
p117
aVavaya
p118
aVaveva-pdms
p119
aVaviation
p120
aVavid
p121
aVaway3d
p122
aVb2b-marketing
p123
aVbackbone-js
p124
aVbacula
p125
aVbaking
p126
aVbasecamp
p127
aVbash
p128
aVbasson
p129
aVbio-informatics
p130
aVbehavioral-event-interviewing
p131
aVbelle-nuit-subtitler
p132
aVbeos
p133
aVbetfair
p134
aVbgl-simple-fund
p135
aVdatabase-design
p136
aVbgp
p137
aVbiostatistics
p138
aVbitrix-intranet
p139
aVbitrock-installbuilder
p140
aVblackboard
p141
aVblazeds
p142
aVblitz-basic
p143
aVbluebox
p144
aVbookkeeping
p145
aVborland-silktest
p146
aVbox2d-game-engine
p147
aVbrand-management
p148
aVbroadvision-quicksilver
p149
aVbuddypress
p150
aVbugzilla
p151
aVbuilding-estimation
p152
aVbuilding-regulations
p153
aVbusiness-analysis
p154
aVbusiness-coaching
p155
aVbusiness-continuity-planning
p156
aVbusiness-development
p157
aVbusiness-intelligence
p158
aVbusiness-process-modelling
p159
aVbusiness-proposal-writing
p160
aVbusiness-scenario-development
p161
aVbusiness-valuation
p162
aVc
p163
aVc#
p164
aVcinematography
p165
aVc++
p166
aVcairngorm
p167
aVcakephp
p168
aVcakewalk-sonar
p169
aVcalculus
p170
aVcall-center-management
p171
aVcall-handling
p172
aVcalligraphy
p173
aVcapistrano
p174
aVcarbide
p175
aVclipping-path
p176
aVcatia
p177
aVcavium-octeon-fusion
p178
aVelasticsearch
p179
aVcelemony-melodyne
p180
aVcello
p181
aVcentos
p182
aVcentreon
p183
aVcg-artwork
p184
aVchange-management
p185
aVchaos-group-v-ray
p186
aVchat-support
p187
aVcheck-point
p188
aVchemical-engineering
p189
aVchemistry
p190
aVchristian-theology
p191
aVchroma-key
p192
aVcisco-asa
p193
aV.net-framework
p194
aVcisco-ios
p195
aVcisco-pix
p196
aValfresco-development
p197
aValfresco-user
p198
aVdocument-object-model
p199
aVpalm-app-development
p200
aVcisco-routers
p201
aVebay-listing-writing
p202
aVebay-marketing
p203
aVcisco-voip
p204
aVcivil-engineering
p205
aVfinnish
p206
aVfirefox-plugin-development
p207
aVrabbitmq
p208
aVibm-ppc-programming
p209
aVclerical-skills
p210
aVintuit-quicken
p211
aVipad-ui-design
p212
aVclickbank
p213
aVclojure
p214
aViphone-ui-design
p215
aVmicrosoft-active-directory
p216
aVppc-advertising
p217
aVsalesforce-app-development
p218
aVseo-backlinking
p219
aVcobol
p220
aVcocoa
p221
aVsound-effects
p222
aVvfx-design
p223
aVweb-crawler
p224
aVwebsite-analytics
p225
aVptgui
p226
aVwindows-7-administration
p227
aVwindows-xp-administration
p228
aVzend-studio
p229
aVcocoa-touch
p230
aVcocos2d
p231
aVcode-refactoring
p232
aVcodeigniter
p233
aVcodesys
p234
aVcodewarrior
p235
aVcoffeescript
p236
aVcognos
p237
aVcold-calling
p238
aVcoldfusion
p239
aVcollaborative-filtering
p240
aVcollection-agencies
p241
aVcomet
p242
aVcomic-art
p243
aVcomic-writing
p244
aVcommon-language-runtime
p245
aVcompositing
p246
aVcomputer-vision
p247
aVcomsat
p248
aVcomsol-multiphysics
p249
aVconcept-sw-inpage
p250
aVconcrete5-cms
p251
aVconflict-resolution
p252
aVconstruction
p253
aVcontao-cms
p254
aVcontinuous-integration
p255
aVcooking
p256
aVcopy-editing
p257
aVcopywriting
p258
aVcorel-draw
p259
aVcorel-painter
p260
aVcorona-sdk
p261
aVcorporate-finance
p262
aVebay-api
p263
aVcost-accounting
p264
aVcouchdb
p265
aVcounseling-psychology
p266
aVcover-letter-writing
p267
aVcpanel
p268
aVcppunit
p269
aVcpu-design
p270
aVcreative-writing
p271
aVtranslation-dutch-english
p272
aVcreloaded
p273
aVcroatian
p274
aVcryptography
p275
aVwhiteboard-animation
p276
aVcs-cart
p277
aVessbase
p278
aVcsu/dsu
p279
aVcubecart
p280
aVcucumber
p281
aVcuda
p282
aVvirtual-private-server
p283
aVcurl
p284
aVcustomer-service
p285
aVcustomer-support
p286
aVgruntjs
p287
aVd3.js
p288
aVdancing
p289
aVvagrant
p290
aVdata-backup
p291
aVdata-mining
p292
aVdata-recovery
p293
aVdata-scraping
p294
aVdata-sheet-writing
p295
aVdatabase-cataloguing
p296
aVdatabase-management
p297
aVdatabase-programming
p298
aVdatabase-testing
p299
aVdatalife-engine
p300
aVdatastage
p301
aVlighting-design
p302
aVdefect-tracking
p303
aVesl-teaching
p304
aVdelftship
p305
aVdemandware
p306
aVdental-technology
p307
aVderivatives
p308
aVadobe-digital-marketing-suite
p309
aVadobe-insight
p310
aVadobe-pdf
p311
aVadobe-premiere-elements
p312
aVadobe-premiere-pro
p313
aVdesktop-publishing
p314
aVamanda-backup
p315
aVapache-administration
p316
aVap-style-writing
p317
aVrelationship-management
p318
aVdevex
p319
aVart-curation
p320
aVarticle-curation
p321
aVasp.net-mvc
p322
aVatm-implementation
p323
aVdevops
p324
aVaudio-engineering
p325
aVdietetics
p326
aVaudio-postediting
p327
aVautodesk
p328
aVautodesk-autocad-civil3d
p329
aVdigital-mapping
p330
aVavid-pro-tools
p331
aVdigital-painting
p332
aVbash-shell-scripting
p333
aVblackberry-app-development
p334
aVdigital-scrapbooking
p335
aVdigital-sculpting
p336
aVbpo-call-center
p337
aVbpo-it-services
p338
aVbrand-licensing
p339
aVchild-counseling
p340
aVcitrix-netscaler
p341
aVcitrix-xenserver
p342
aVcivil-law
p343
aVcomputer-hw-design
p344
aVcomputer-hw-installation
p345
aVcorporate-law
p346
aVdinamica-ego
p347
aVcriminal-law
p348
aVdatabase-adminstration
p349
aVdatabase-caching
p350
aVebook-design
p351
aVeconomic-analysis
p352
aVemail-technical-support
p353
aVenergy-engineering
p354
aVetsy-administration
p355
aVdirect-marketing
p356
aVdirectory-submission
p357
aVfilm-direction
p358
aVdirectshow
p359
aVdirectx
p360
aVfilm-production
p361
aVdisaster-recovery
p362
aVgoogle-calendar-development
p363
aVgoogle-map-maker
p364
aVgoogle-sites-administration
p365
aVlan-implementation
p366
aVgps-development
p367
aVgraphics-programming
p368
aVguitar-composition
p369
aVguitar-performance
p370
aVhw-prototyping
p371
aVhp-ux-administration
p372
aVhr-benefits
p373
aVibm-websphere
p374
aVibm-z/vm-administration
p375
aVinfusionsoft-administration
p376
aVinfusionsoft-development
p377
aVintersystems-cache
p378
aVintranet-architecture
p379
aVintranet-implementation
p380
aVdistance-education
p381
aVirc-server-administration
p382
aVjava-servlets-development
p383
aVqgis
p384
aVdistributed-computing
p385
aVkindle-app-development
p386
aVkvm-switches
p387
aVdmaic
p388
aVkvm-virtualization
p389
aVlan-administration
p390
aVdocbook
p391
aVdocument-conversion
p392
aVlexis-nexis-accurint
p393
aVdocument-review
p394
aVlexis-nexis-practice-advisor
p395
aVdotnetnuke
p396
aVlinkedin-recruiting
p397
aVlogmein-hamachi
p398
aVlogmein-rescue
p399
aVmac-os-app-development
p400
aVmail-server-implementation
p401
aVmake-build-script
p402
aVmarriage-counseling
p403
aVmeego-development
p404
aVmicrocontroller-design
p405
aVmicrocontroller-programming
p406
aVmicrosoft-dynamics-crm
p407
aVmicrosoft-dynamics-erp
p408
aVmicrosoft-entity-framework
p409
aVmicrosoft-infopath
p410
aVmicrosoft-kinect-development
p411
aVmicrosoft-outlook-development
p412
aVdriving
p413
aVmicrosoft-sharepoint-administration
p414
aVmicrosoft-sharepoint-development
p415
aVmicrosoft-small-business-server-administration
p416
aVmicrosoft-sql-server-administration
p417
aVqualitative-research
p418
aVionic-framework
p419
aVmicrosoft-visual-c++
p420
aVmicrosoft-windows-powershell
p421
aVinformatique
p422
aVmikrotik-routerboard
p423
aVmikrotik-routeros
p424
aVmobile-app-development
p425
aVdrupal
p426
aVmodel-sheet-design
p427
aVmodel-sheet-drawing
p428
aVms-dos-administration
p429
aVmultithreaded-programming
p430
aVdvd-mastering
p431
aVmulti-touch-hw-development
p432
aVmulti-touch-programming
p433
aVmusic-arrangement
p434
aVdwolla-api
p435
aVe-health
p436
aVeagle-pcb
p437
aVmyob-administration
p438
aVmyspace-marketing
p439
aVnav-system-design
p440
aVdundas-controls
p441
aVnav-system-implementation
p442
aVhealth-level-7
p443
aVebook-writing
p444
aVnetsuite-administration
p445
aVeclipse
p446
aVecmascript
p447
aVnetsuite-development
p448
aVnewsletter-writing
p449
aVnfs-administration
p450
aVnfs-implementation
p451
aVeconometrics
p452
aVediting
p453
aVeducation-technology
p454
aVoff-page-optimization
p455
aVopenerp-administration
p456
aVopenerp-development
p457
aVedufire
p458
aVektron
p459
aVelastix
p460
aVelectrical-drawing
p461
aVoperating-systems-development
p462
aVelectrical-engineering
p463
aVelectronic-funds-transfer
p464
aVsculpting
p465
aVelectronics
p466
aVoracle-database-administration
p467
aVoracle-e-business-suite
p468
aVpatent-law
p469
aVnarration
p470
aVelgg
p471
aVstripe
p472
aVphotograph-color-correction
p473
aVpiano-composition
p474
aVislamic-banking
p475
aVcomputational-fluid-dynamics
p476
aVgolang
p477
aVembedded-c
p478
aVembedded-linux
p479
aVembroidery
p480
aVembroidery-digitization
p481
aVpiano-performance
p482
aVpinterest-marketing
p483
aVprint-layout-design
p484
aVminitab
p485
aVpaypal-api
p486
aVodoo
p487
aVdialux
p488
aVengineering-drawing
p489
aVenglish-tutoring
p490
aVentity-framework
p491
aVenvironmental-science
p492
aVerdas-imagine
p493
aVerlang
p494
aVpuppet-administration
p495
aVevent-management
p496
aVquantitative-analysis
p497
aVradio-broadcasting
p498
aVraid-administration
p499
aVreal-estate-idx
p500
aVhybris
p501
aVretail-merchandising
p502
aVretail-ops-management
p503
aVrpg-development
p504
aVevent-planning
p505
aVeviews
p506
aVevolus-pencil
p507
aVrpg-writing
p508
aVrtlinux
p509
aVsalesforce-apex
p510
aVsap-sybase-adaptive-server-enterprise
p511
aVscripting
p512
aVtranslation-english-greek
p513
aVexim
p514
aVseo-keyword-research
p515
aVsoftware-debugging
p516
aVsoftware-licensing
p517
aVmarketo
p518
aVstored-procedure-development
p519
aVsystems-development
p520
aVtally.erp
p521
aVtally-shoper
p522
aVteaching-algebra
p523
aVf#-language
p524
aVteaching-mathematics
p525
aVfaac
p526
aVkentico
p527
aVteaching-physics
p528
aVtealeaf-cximpact
p529
aVtibco-activematrix-businessworks
p530
aVtoon-boom-harmony
p531
aVtoon-boom-studio
p532
aVfacebook-games-development
p533
aVtv-broadcasting
p534
aVtwitter-marketing
p535
aVfacelets
p536
aVtranslation-english-vietnamese
p537
aVunix-system-administration
p538
aVvarnish-cache
p539
aVvelocity-template-engine
p540
aVparse
p541
aVvfx-animation
p542
aVvideo-postediting
p543
aVviolin-composition
p544
aVviolin-performance
p545
aVvirtual-assistant
p546
aVvisual-merchandising
p547
aVvmware-administration
p548
aVvoip-administration
p549
aVfact-checking
p550
aVvoip-software
p551
aVlandesk
p552
aVwatercolor-painting
p553
aVwebisode-presentation
p554
aVwebisode-production
p555
aVkajabi
p556
aVwebsite-prototyping
p557
aVwin32-app-development
p558
aVwindows-8-administration
p559
aVfashion-designing
p560
aVfortran
p561
aVwindows-8-app-development
p562
aVwindows-app-development
p563
aVwindows-forms-development
p564
aVwindows-nt-administration
p565
aVfashion-modeling
p566
aVwindows-phone
p567
aVwireless-network-implementation
p568
aVfax
p569
aVwireless-security
p570
aVcertified-public-accountant
p571
aVwordperfect
p572
aVxen-cloud-platform
p573
aVxen-hypervisor
p574
aVfederal-acquisition-regulations
p575
aVyahoo-merchant-solutions
p576
aVyandex-api
p577
aVyandex-matrixnet
p578
aVyoutube-marketing
p579
aVzillow-marketing
p580
aVzimbra-administration
p581
aVzimbra-development
p582
aVblender3d
p583
aVcomputer-maintenance
p584
aVfedora
p585
aVlive-chat-operator
p586
aVfetchmail
p587
aVffmpeg
p588
aVfield-map
p589
aVlogic-pro
p590
aVfilemaker-pro
p591
aVfilm-criticism
p592
aVfilm-dubbing
p593
aVfinal-cut-pro
p594
aVfinal-draft
p595
aVxactimate
p596
aVfinancial-analysis
p597
aVfinancial-modeling
p598
aVfinancial-prospectus-writing
p599
aVfire-protection-engineering
p600
aVfirebird
p601
aVfirewalls
p602
aVfirst-aid
p603
aVfl-studio
p604
aVflask
p605
aVfont-development
p606
aVfontforge
p607
aVosclass
p608
aVfraud-analysis
p609
aVfreebsd
p610
aVfreemarker
p611
aVfreepbx
p612
aVfreeswitch
p613
aVfriendster
p614
aVfrontend-development
p615
aVfrontpage
p616
aVmotivational-speaking
p617
aVfuel-cms
p618
aVfunctional-testing
p619
aVfundraising
p620
aVfusebox
p621
aVgambling
p622
aVireport
p623
aVngcore
p624
aVgame-design
p625
aVgame-development
p626
aVgame-testing
p627
aVgamesalad-creator
p628
aVgarageband
p629
aVgearman
p630
aVgeartrax
p631
aVgemvision-matrix
p632
aVgeology
p633
aVgeometry
p634
aVgetresponse
p635
aVggplot2
p636
aVgimp
p637
aVemberjs
p638
aVgit
p639
aVgithub
p640
aVglassfish
p641
aVgoldmine
p642
aVgoogle-analytics
p643
aVgoogle-app-engine
p644
aVgoogle-apps
p645
aVgoogle-docs
p646
aVgoogle-gadgets-api
p647
aVgoogle-maps-api
p648
aVgoogle-places-api
p649
aVgoogle-plus
p650
aVgoogle-reader
p651
aVgoogle-searching
p652
aVgoogle-sketchup
p653
aVgoogle-swiffy
p654
aVgotomypc
p655
aVgradle
p656
aVgrails
p657
aVpeople-code
p658
aVgrant-writing
p659
aVgraphic-design
p660
aVgreenline-verifix
p661
aVnvidia-mental-ray
p662
aVgreenplum
p663
aVgroovy
p664
aVgtk-programming
p665
aVperl
p666
aVhadoop
p667
aVhaml
p668
aVhaproxy
p669
aVhaskell
p670
aVhaxe
p671
aVhbase
p672
aVrotoscoping
p673
aVheroku
p674
aVtranslation-danish-english
p675
aVhi5
p676
aVhibernate
p677
aVhome-automation
p678
aVhootsuite
p679
aVhoudini
p680
aVoptimizepress
p681
aVmvc-framework
p682
aVhp-quality-center
p683
aVhp-ux
p684
aVhtml
p685
aVhuman-resource-management
p686
aVhungarian
p687
aVhvac-system-design
p688
aVhypnosis
p689
aVibatis
p690
aVzurb-foundation
p691
aVibm-lotus-notes-traveler
p692
aVibm-lotus-symphony
p693
aVibm-pseries
p694
aVibm-rational-rose
p695
aVibm-sametime
p696
aVresponsys-marketing
p697
aVibm-spss
p698
aVibm-storage
p699
aVibm-tivoli
p700
aVseo-audit
p701
aVibm-xseries
p702
aVicefaces
p703
aViclone
p704
aVicontact
p705
aVidrisi
p706
aVillustration
p707
aVimacros-scripting
p708
aVimage-processing
p709
aVinbound-marketing
p710
aVindustrial-design
p711
aVindustrial-engineering
p712
aVinformatica
p713
aVinformation-architecture
p714
aVinformation-builders-webfocus
p715
aVinformation-design
p716
aVoptimizely
p717
aVinfragistics
p718
aVperldancer
p719
aVskeleton
p720
aVingress-filtering
p721
aVinkscape
p722
aVinno-setup
p723
aVinstaller-development
p724
aVinstallshield
p725
aVinstructional-design
p726
aVscrapebox
p727
aVintellicred
p728
aVintellij-idea
p729
aVinteraction-design
p730
aVinteractive-voice-response
p731
aVinterbase
p732
aVinterior-design
p733
aVinternal-auditing
p734
aVedius
p735
aVinternational-tax-law
p736
aVinternet-marketing
p737
aVinternet-research
p738
aVinternet-surveys
p739
aVinterprise-suite-erp
p740
aVinterspire
p741
aVinterviewing
p742
aVinvoicing
p743
aViphone-app-development
p744
aViptables
p745
aVislamic-theology
p746
aViso-9000
p747
aVissue-tracking-systems
p748
aVitsm
p749
aVjapanese
p750
aVjasperreports
p751
aVjava
p752
aVjavafx
p753
aVjavascript
p754
aVjboss
p755
aVjboss-seam
p756
aVjbpm
p757
aVjdeveloper
p758
aVjenkins
p759
aVjig-and-fixture-design
p760
aVjingle-program-production
p761
aVjmeter
p762
aVjquery
p763
aVjquery-mobile
p764
aVlegal-writing
p765
aVjuniper-routers
p766
aVjunit
p767
aVjunos
p768
aVkaltural
p769
aVkerberos
p770
aVkerkythea
p771
aVkeynote
p772
aVmarketing-automation
p773
aVkixtart
p774
aVknockoutjs
p775
aVkohana
p776
aVkorean
p777
aVksh-korn-shell
p778
aVlabview
p779
aVresponsys-development
p780
aVlandscape-design
p781
aVlanguage-filipino-visayan-dialect
p782
aVlaser-engraving
p783
aVlatex
p784
aVlead-generation
p785
aVlectora
p786
aVlegal-research
p787
aVlemonstand
p788
aVless-framework
p789
aVlesson-plan-writing
p790
aVlevel-design
p791
aVlibgdx
p792
aVlibreoffice
p793
aVlighttpd
p794
aVresponsys-administration
p795
aVlightworks
p796
aVlimejs
p797
aVlimesurvey
p798
aVlingo
p799
aVinfusionsoft-marketing
p800
aVlink-wheel
p801
aVpardot-marketing
p802
aVlinkvana
p803
aVlinq-to-entities
p804
aVlinq-to-sql
p805
aVlinux-slackware
p806
aVliquid-planner
p807
aVlisp
p808
aVliterature-review
p809
aVlithuanian
p810
aVliveperson
p811
aVlive-chat-software
p812
aVifbyphone-api-development
p813
aVload-balancing
p814
aVmathematica
p815
aVload-testing
p816
aVloadrunner
p817
aVlog4j
p818
aVpardot-development
p819
aVlogixml
p820
aVlotus-approach
p821
aVlotus-domino
p822
aVlotus-notes
p823
aVlua
p824
aVlyrics-writing
p825
aVmachine-design
p826
aVmachine-learning
p827
aVmadcap-flare
p828
aVpardot-administration
p829
aVmaemo
p830
aVmagento
p831
aVmagic-bullet-colorista
p832
aVmagic-bullet-looks
p833
aVmagic-tricks
p834
aVmail-merge
p835
aVmailchimp
p836
aVmailenable
p837
aVmambo
p838
aVmanagement-development
p839
aVmarketing-cloud-marketing
p840
aVmaple
p841
aVmarketing-cloud-development
p842
aVmarket-research
p843
aVmarketing-strategy
p844
aVmartial-arts
p845
aVmaster-production-schedule
p846
aVmathcad
p847
aVzoomla
p848
aVmatlab
p849
aVmaven
p850
aVmarketing-cloud-administration
p851
aVzendesk-api-development
p852
aVmax
p853
aVmcafee-epo
p854
aVmcafee-virusscan
p855
aVmcda
p856
aVmechanical-engineering
p857
aVmechatronics
p858
aVmedia-buying
p859
aVmedia-relations
p860
aVmediawiki
p861
aVmedical-billing-coding
p862
aVmedical-illustration
p863
aVmedical-imaging
p864
aVmedical-records-research
p865
aVmedical-transcription
p866
aVmedical-writing
p867
aVmemcached
p868
aVmenu-design
p869
aVmerchantrun-globallink
p870
aVmercurial
p871
aVmerise
p872
aVmeteor
p873
aVmethods-engineering
p874
aVifbyphone-administration
p875
aVmicrosoft-excel
p876
aVmicrosoft-excel-powerpivot
p877
aVmicrosoft-exchange-server
p878
aVmicrosoft-great-plains
p879
aVmicrosoft-lync-server
p880
aVmicrosoft-mappoint
p881
aVmicrosoft-onenote
p882
aVmicrosoft-powerpoint
p883
aVmicrosoft-project
p884
aVmicrosoft-publisher
p885
aVmicrosoft-silverlight
p886
aVmicrosoft-sql-server-notification-services
p887
aVmicrosoft-sql-server-service-broker
p888
aVmicrosoft-virtual-server
p889
aVmicrosoft-visio
p890
aVmicrosoft-visual-studio
p891
aVmicrosoft-word
p892
aVmicrostock-photography
p893
aVmicrostrategy
p894
aVmind-mapping
p895
aVmindtouch-wiki
p896
aVminecraft
p897
aVmiva-merchant
p898
aVmobi
p899
aVmockito
p900
aVmodul8
p901
aVmodx
p902
aVservice-cloud-administration
p903
aVmolecule-editors
p904
aVmongodb
p905
aVmongrel
p906
aVmono
p907
aVmoodle
p908
aVmoonscript
p909
aVmootools
p910
aVmorae
p911
aVmoss
p912
aVmotion-graphics
p913
aVmozenda-scraper
p914
aVmql4
p915
aVms-visual-studio-lightswitch
p916
aVmsn-adcenter
p917
aVmtek
p918
aVmunin
p919
aVapache-spark
p920
aVmusic-composition
p921
aVmusic-dubbing
p922
aVmusic-engraving
p923
aVmxml
p924
aVservice-cloud-development
p925
aVn2cms
p926
aVnagios
p927
aVnatural-language-processing
p928
aVnegotiation
p929
aVnetbeans
p930
aVnetbsd
p931
aVnetezza
p932
aVdesk.com-administration
p933
aVnetwork-planning
p934
aVnetwork-security
p935
aVdesk.com-development
p936
aVneuro-linguistic-programming
p937
aVnews-writing-style
p938
aVnext-limit-maxwell-render
p939
aVnext-limit-realflow
p940
aVnginx
p941
aVchart.js
p942
aVhighcharts
p943
aVnhibernate
p944
aVni-multisim
p945
aVnode.js
p946
aVnon-disclosure-agreements
p947
aVnon-linear-editing
p948
aVnopcommerce
p949
aVaxiis
p950
aVnotary-public
p951
aVnovell-netware
p952
aVnservicebus
p953
aVnuendo
p954
aVnursing
p955
aVoauth
p956
aVobject-oriented-design
p957
aVobject-pascal
p958
aVobjective-c
p959
aVobjective-j
p960
aVocaml
p961
aVoccupational-health
p962
aVoctave
p963
aVodbc
p964
aVopentype
p965
aVodesk-api
p966
aVogre
p967
aVoil-painting
p968
aVolap
p969
aVole-automation
p970
aVkickstarter-marketing
p971
aVomnigroup-omnigraffle
p972
aVon-page-optimization
p973
aVonline-community-management
p974
aVonline-help
p975
aVopenacs
p976
aVopenbsd
p977
aVopencart
p978
aVopencl
p979
aVopencv
p980
aVopenemm
p981
aVopengl
p982
aVopengl-es
p983
aVopenlayers
p984
aVopensips
p985
aVopensocial
p986
aVopensuse
p987
aVopentext
p988
aVopenvbx
p989
aVopenvms
p990
aVopenvpn
p991
aVopenvz
p992
aVopenwrt
p993
aVopenx
p994
aVoracle-application-framework
p995
aVoracle-application-server
p996
aVoracle-brm
p997
aVoracle-complex-events-processing
p998
aVoracle-database
p999
aVoracle-enterprise-service-bus
p1000
aVoracle-forms
p1001
aVoracle-fusion-middleware
p1002
aVoracle-hyperion
p1003
aVoracle-java-ee
p1004
aVoracle-performance-tuning
p1005
aVoracle-primavera
p1006
aVpodio
p1007
aVpbwiki
p1008
aVoracle-reports
p1009
aVcrowdfunding
p1010
aVoracle-soa-suite
p1011
aVoracle-ucm
p1012
aVorangecrm
p1013
aVorcad
p1014
aVorchardcms
p1015
aVorder-processing
p1016
aVorganizational-development
p1017
aVormlite
p1018
aVos/2
p1019
aVoscommerce
p1020
aVosgi
p1021
aVp-cad
p1022
aVpaint.net
p1023
aVpapercraft
p1024
aVpapervision3d
p1025
aVparticle-illusion
p1026
aVpascal
p1027
aVpattern-recognition
p1028
aVpay-per-click
p1029
aVtranslation-english-hebrew
p1030
aVmixpanel
p1031
aVpdf-conversion
p1032
aVpeachtree-accounting
p1033
aVpear
p1034
aVpentaho
p1035
aVperforce
p1036
aVperformance-testing
p1037
aVperformance-tuning
p1038
aVperforming-arts
p1039
aVpervasive-software
p1040
aVpestel
p1041
aVpfsense
p1042
aVphing
p1043
aVkissmetrics
p1044
aVphonegap
p1045
aVphoto-manipulation
p1046
aVphotography
p1047
aVphotoscape
p1048
aVphp
p1049
aVphpbb
p1050
aVphpfox
p1051
aVphpmyadmin
p1052
aVphpmydirectory
p1053
aVpowerbuilder
p1054
aVphpnuke
p1055
aVphysical-fitness
p1056
aVpinnacle-studio
p1057
aVplay-framework
p1058
aVplesk
p1059
aVplivo
p1060
aVplone
p1061
aVpocketpc
p1062
aVpoetry
p1063
aVpolicy-writing
p1064
aVpolish
p1065
aVpolymer-clay-sculpting
p1066
aVpomodoro-technique
p1067
aVportait-painting
p1068
aVportfolio-performance-modeling
p1069
aVportuguese
p1070
aVpos-terminal-development
p1071
aVposer
p1072
aVsinatra-framework
p1073
aVpostscript
p1074
aVtranslation-english-icelandic
p1075
aVpowershell
p1076
aVprado-php-framework
p1077
aVpre-press
p1078
aVpresentation-design
p1079
aVpresonus-studio-one
p1080
aVpress-advertising
p1081
aVpress-release-writing
p1082
aVprestashop
p1083
aVsap-crm
p1084
aVprezi-presentations
p1085
aVprimefaces
p1086
aVprint-design
p1087
aVprocess-architect
p1088
aVprocess-improvement
p1089
aVred5
p1090
aVprocessing
p1091
aVproduct-management
p1092
aVroomorama-api
p1093
aVprogram-management
p1094
aVproject-management
p1095
aVprolog
p1096
aVproofreading
p1097
aVpropellerhead-reason
p1098
aVproperty-tax
p1099
aVprototypejs
p1100
aVpsd-to-html
p1101
aVpspice
p1102
aVpublic-relations
p1103
aVpublic-speaking
p1104
aVpunching
p1105
aVruby-on-rails
p1106
aVpurchasing-management
p1107
aVpure-data
p1108
aVpyqt
p1109
aVpyro
p1110
aVpython
p1111
aVqcodo
p1112
aVqhse
p1113
aVqliktech-qlikview
p1114
aVqmail
p1115
aVqnx
p1116
aVqooxdoo
p1117
aVqt
p1118
aVquantity-surveying
p1119
aVquartz
p1120
aVquartz-composer
p1121
aVquick-sales-system
p1122
aVwhmcs
p1123
aVquickfix
p1124
aVradiant-cms
p1125
aVradiant-zemax
p1126
aVradio-show-hosting
p1127
aVradius
p1128
aVreal-estate-appraisal
p1129
aVrealbasic
p1130
aVrealist-painting
p1131
aVrecipe-writing
p1132
aVredis
p1133
aVredmine
p1134
aVrefinery-cms
p1135
aVregression-testing
p1136
aVreport-writing
p1137
aVreputation-management
p1138
aVrequirement-management
p1139
aVrequirements-analysis
p1140
aVreverse-engineering
p1141
aVrfid
p1142
aVrhinoceros-3d
p1143
aVrhinoscript
p1144
aVrhodes-framework
p1145
aVrichfaces
p1146
aVtelerik
p1147
aVrightscale
p1148
aVrisk-management
p1149
aVrobotframework
p1150
aVrobotics
p1151
aVrspec
p1152
aVrss
p1153
aVruby
p1154
aVrussian
p1155
aVsales
p1156
aVsales-management
p1157
aVsales-promotion
p1158
aVsalesgenie-dot-com
p1159
aVsamba
p1160
aVsap-2000
p1161
aVsimpledb
p1162
aVsap-analysis
p1163
aVsap-basis
p1164
aVsap-business-objects
p1165
aVsap-businessone
p1166
aVlaravel-framework
p1167
aVsap-erp
p1168
aVsap-erp-hcm
p1169
aVsap-fico
p1170
aVsap-le
p1171
aVsap-me
p1172
aVsap-mm
p1173
aVsap-netweaver
p1174
aVsap-sd
p1175
aVsap-webdynpro
p1176
aVsap-wm
p1177
aVsapphire
p1178
aVsass
p1179
aVsassie-mystery-shopping
p1180
aVsatire
p1181
aVscada
p1182
aVscala
p1183
aVsoftware-testing
p1184
aVscale-modeling
p1185
aVscalr
p1186
aVscenario-planning
p1187
aVscheme
p1188
aVscientific-writing
p1189
aVresponsive-web-design
p1190
aVscorm
p1191
aVscrapy-framework
p1192
aVscreenwriting
p1193
aVscriptaculous
p1194
aVscrum
p1195
aVsculpture
p1196
aVsdl-passolo
p1197
aVsdl-trados
p1198
aVselenium
p1199
aVselenium-webdriver
p1200
aVsencha
p1201
aVsendmail
p1202
aVsensable-claytrix
p1203
aVsentiment-analysis
p1204
aVinstagram-marketing
p1205
aVsenuke-x
p1206
aVinstagram-api
p1207
aVnutrition
p1208
aVunbounce
p1209
aVsequential-art
p1210
aVserenic-navigator
p1211
aVserial-port-interfacing
p1212
aVserialization
p1213
aVhistory
p1214
aVsermon-writing
p1215
aVservice-level-management
p1216
aVservoy
p1217
aVsession-description-protocol
p1218
aVsharepoint-designer
p1219
aVshiva3d
p1220
aVshopify
p1221
aVshort-story-writing
p1222
aVshoutcast
p1223
aVsibelius
p1224
aVsiemens-nx
p1225
aVsigmaplot
p1226
aVsilverstripe
p1227
aVsimple-directmedia-layer
p1228
aVadobe-muse
p1229
aVsimulink
p1230
aVsinging
p1231
aVsitecore
p1232
aVsitefinity
p1233
aVarticulate-storyline
p1234
aVsix-sigma
p1235
aVskadate
p1236
aVraspberry-pi
p1237
aVskype
p1238
aVskype-development
p1239
aVhubspot
p1240
aVsmalltalk
p1241
aVsmarty
p1242
aVapache-cordova
p1243
aVsms
p1244
aVsms-gateway
p1245
aVsnagit
p1246
aVsnort
p1247
aVsoap
p1248
aVsoapui
p1249
aVsocial-bookmarking
p1250
aVsocial-media-marketing
p1251
aVsocialengine
p1252
aVdebian-os
p1253
aVkendo-ui
p1254
aVcomedy-writing
p1255
aVmanga
p1256
aVphoto-retouching
p1257
aVsocial-media-management
p1258
aVsolid-edge
p1259
aVsolidworks
p1260
aVsony-acid-pro
p1261
aVsony-vegas
p1262
aVsound-design
p1263
aVsound-editing
p1264
aVsound-forge
p1265
aVsoundtrack-pro
p1266
aVspacewalk
p1267
aVspamassassin
p1268
aVsparx-systems-enterprise-architect
p1269
aVsphinx
p1270
aVspiral-graphics-genetica
p1271
aVsplunk
p1272
aVspm-design
p1273
aVspree
p1274
aVspring-framework
p1275
aVspring-security
p1276
aVsql
p1277
aVsql-azure
p1278
aVreal-estate-management
p1279
aVsqr
p1280
aVtranslation-belarusian-english
p1281
aVsquarespace
p1282
aVmobile-ui-design
p1283
aVstakeholder-management
p1284
aVstata
p1285
aVms-office-365
p1286
aVstatistics
p1287
aVstatpoint-statgraphics
p1288
aVsteinberg-cubase
p1289
aVsteinberg-wavelab
p1290
aVstenography
p1291
aVstereoscopy
p1292
aVstill-life-painting
p1293
aVstrategic-planning
p1294
aVstress-management
p1295
aVstructural-engineering
p1296
aVstructured-cabling
p1297
aVstyle-guide-development
p1298
aVsubversion
p1299
aVwordpress-plugin
p1300
aVsupervised-learning
p1301
aVsupervisory-skills
p1302
aVmanagement-consulting
p1303
aVpsd-to-wordpress
p1304
aVvideo-sales-letter
p1305
aVconversion-rate-optimization
p1306
aVsupply-chain-management
p1307
aVsurvey-monkey
p1308
aVsustainable-energy
p1309
aVsw-configuration-management
p1310
aVswedish
p1311
aVswing
p1312
aVswishmax
p1313
aVamazon-webstore
p1314
aVsymfony
p1315
aVsyncsort
p1316
aVsynopsis-writing
p1317
aVsynthetic-aperture-color-finesse
p1318
aVlettering
p1319
aVworketc
p1320
aVsystem-automation
p1321
aVt-shirt-design
p1322
aVt-sql
p1323
aVtableau
p1324
aVtalend-open-studio
p1325
aVtapestry
p1326
aVtax-preparation
p1327
aVtaxonomy
p1328
aVteamviewer
p1329
aVtranslation-english-kyrgyz
p1330
aVzapier
p1331
aVtechnical-analysis
p1332
aVtechnical-editing
p1333
aVtechnical-support
p1334
aVtechnical-writing
p1335
aVtekla-structures
p1336
aVtelemarketing
p1337
aVwebflow
p1338
aVterrdata
p1339
aVbluetooth
p1340
aVtest-automation
p1341
aVtest-case-design
p1342
aVtestlink
p1343
aVtextpattern
p1344
aVtexture-artistry
p1345
aVtfs
p1346
aVthe-foundry-nuke
p1347
aVthe-pixel-farm-pftrack
p1348
aVtheology
p1349
aVtk
p1350
aVtoktumi
p1351
aVtornado
p1352
aVtranslation-catalan-english
p1353
aVmacaw
p1354
aVtorque-game-engine
p1355
aVtourism
p1356
aVtrac
p1357
aVtrade-marketing
p1358
aVtrade2bharat
p1359
aVtraffic-geyser
p1360
aVtranscreation
p1361
aVtranscription
p1362
aVtranslation
p1363
aVkyrgyz
p1364
aVforum-development
p1365
aVintuit-lacerte-tax
p1366
aVnexmo
p1367
aVsketch
p1368
aVgoogle-shopping
p1369
aVdigital-ocean
p1370
aVdiffbot
p1371
aVapache-nutch
p1372
aVagile-software-development
p1373
aVgoogle-tag-manager
p1374
aVadobe-edge
p1375
aVfirmware
p1376
aVequity-research
p1377
aVaso
p1378
aVhtml5-canvas
p1379
aVcartooning
p1380
aVlamp-administration
p1381
aVoracle-rac
p1382
aVredhat-administration
p1383
aVseo
p1384
aVsoftware-qa-testing
p1385
aVd-language
p1386
aVlegal-translation
p1387
aVmedical-translation
p1388
aVtechnical-translation
p1389
aVcontract-manufacturing
p1390
aVinformation-security
p1391
aVdata-visualization
p1392
aVibeacon
p1393
aVvideoscribe
p1394
aVtrello
p1395
aVlogstash
p1396
aVccnp
p1397
aVfpga
p1398
aVjsf
p1399
aVmpls
p1400
aVfamo-us
p1401
aVhhvm
p1402
aVtravel-writing
p1403
aVtriakis-vsil
p1404
aVtrixbox
p1405
aVtropo
p1406
aVunix-shell
p1407
aVtumblr
p1408
aVturkish
p1409
aVtwig-template-engine
p1410
aVtwitter-api
p1411
aVtwitter-bootstrap
p1412
aVtypepad
p1413
aVtypesetting
p1414
aVtypo3
p1415
aVtypography
p1416
aVubuntu
p1417
aVtranslation-portuguese-english
p1418
aVtranslation-swedish-english
p1419
aVui-design
p1420
aVulead-cool-3d
p1421
aVulead-video-studio
p1422
aVumbraco
p1423
aVunderwriting
p1424
aVunify-sqlbase
p1425
aVunify-team-developer
p1426
aVunit-testing
p1427
aVunity-3d
p1428
aVunreal-development-kit
p1429
aVunrealscript
p1430
aVurban-design
p1431
aVusability-testing
p1432
aVuser-acceptance-testing
p1433
aVusers-guide-writing
p1434
aVuv-mapping
p1435
aVvaadin-framework
p1436
aVvalgrind
p1437
aVvbscript
p1438
aVvbseo
p1439
aVvbulletin
p1440
aVvectorworks
p1441
aVveeam
p1442
aVvendor-management-systems
p1443
aVvertica
p1444
aVvicidial
p1445
aVvideo-editing
p1446
aVvideo-production
p1447
aVvidvox-vdmx
p1448
aVviral-marketing
p1449
aVvirtuemart
p1450
aVvirus-removal
p1451
aVvisual-dataflex
p1452
aVvisual-foxpro
p1453
aVvisualforce
p1454
aVvizrt
p1455
aVvmware-esx
p1456
aVgitlab
p1457
aVhomebrew
p1458
aVvoicexml
p1459
aVvolleyball
p1460
aVvolusion
p1461
aVverilog
p1462
aVvray
p1463
aVvulnerability-assessment
p1464
aVvxworks
p1465
aVw3c-widget-api
p1466
aVwamp
p1467
aVwardrobe-styling
p1468
aVwave-accounting
p1469
aVweb-design
p1470
aVweb-scraping
p1471
aVweb-testing
p1472
aVwebeeh
p1473
aVweberp
p1474
aVwebsite-baker
p1475
aVwebsite-wireframing
p1476
aVweebly
p1477
aVweka
p1478
aVwelding
p1479
aVwestlaw
p1480
aVwilcom-embroiderystudio
p1481
aVappium
p1482
aVwindev
p1483
aVwindev-mobile
p1484
aVwindows-media-connect
p1485
aVironpython
p1486
aVwinrunner
p1487
aVwinsock
p1488
aVwix
p1489
aVword-processing
p1490
aVwordfast
p1491
aVwordpress
p1492
aVworkforce-management
p1493
aVworkshop-facilities
p1494
aVworldbuilding
p1495
aVworldspan
p1496
aVwowza-media-server
p1497
aVwp-ecommerce
p1498
aValibre-design
p1499
aVwrap-advertising
p1500
aVwxwidgets
p1501
aVx86-assembler
p1502
aVxaml
p1503
aVxampp
p1504
aVxara-designer
p1505
aVxbox-game-development
p1506
aVzend-framework
p1507
aVexpress-js
p1508
aVxero
p1509
aVxhtml
p1510
aVxilinx
p1511
aVxlinesoft-phprunner
p1512
aVxml
p1513
aVxml-rpc
p1514
aVxml-web-services
p1515
aVxoops
p1516
aVxpath
p1517
aVxquery
p1518
aVxul
p1519
aVyahoo-messenger
p1520
aVyahoo-query-language
p1521
aVyahoo-search-marketing
p1522
aVyii-framework
p1523
aVyoga
p1524
aVkoa
p1525
aVzabbix
p1526
aVzaxwerks
p1527
aVzencart
p1528
aVzendesk
p1529
aVzennolab-zennoposter
p1530
aVopenshift
p1531
aVzoho-creator
p1532
aVzoho-crm
p1533
aVzope
p1534
aVm0n0wall
p1535
aVtastypie
p1536
aVcloud-foundry
p1537
aVbbpress
p1538
aVipsec
p1539
aVsinhala
p1540
aVstaad
p1541
aVjonas
p1542
aVpyjamas
p1543
aVgamification
p1544
aVandroid-app-development
p1545
aVcivicrm
p1546
aVdigital-access-pass
p1547
aVdrop-shipping
p1548
aVgoogle-adsense-api
p1549
aVgoogle-adwords
p1550
aVtypescript
p1551
aVgoogle-app-engine-api
p1552
aVgoogle-apps-api
p1553
aVgoogle-calendar-api
p1554
aVgoogle-docs-api
p1555
aVgoogle-gadgets
p1556
aVgoogle-reader-api
p1557
aVgoogle-search-api
p1558
aVgoogle-sites-api
p1559
aVgoogle-spreadsheets-api
p1560
aVipad-app-development
p1561
aVremoting
p1562
aV2d-animation
p1563
aV3d-design
p1564
aV3d-modeling
p1565
aVautodesk-3d-studio-max
p1566
aVa2billing
p1567
aVsap-abap
p1568
aVkarma
p1569
aVaccounting
p1570
aVaccounts-payable-management
p1571
aVaccounts-receivable-management
p1572
aVactian
p1573
aVtranslation-spanish-german
p1574
aVactionscript-3
p1575
aVasp
p1576
aVatl
p1577
aVtranslation-german-spanish
p1578
aVad-posting
p1579
aVember-js
p1580
aVadobe-graphics-assembly-language
p1581
aVgoogle-adsense
p1582
aVamqp
p1583
aVaffiliate-marketing
p1584
aVajax
p1585
aValgorithms
p1586
aValpha
p1587
aValternativa3d
p1588
aValternative-dispute-resolution
p1589
aVamadeus
p1590
aVappcelerator-titanium
p1591
aVamazon-mechanical-turk-api
p1592
aVantenna-design
p1593
aVapache-shirol
p1594
aVapi-documentation
p1595
aVreact-js
p1596
aVappian
p1597
aVappian-bpm-suite
p1598
aVapple-ios-jailbreaking
p1599
aVapi-development
p1600
aVtranslation-english-portuguese
p1601
aVtranslation-english-brazilian-portuguese
p1602
aVtranslation-english-belarusian
p1603
aVarabic
p1604
aVarchitectural-rendering
p1605
aVarticle-writing
p1606
aVarticle-spinning
p1607
aVarticle-submission
p1608
aVartificial-intelligence
p1609
aVas400-cl
p1610
aVaspectjs
p1611
aVassembly-language
p1612
aVasterisk
p1613
aVatlas
p1614
aVaudio-editing
p1615
aVaweber
p1616
aVaudio-mastering
p1617
aVaudio-mixing
p1618
aVaudio-post-production
p1619
aVaudio-production
p1620
aVaugmented-reality
p1621
aVauthor-it
p1622
aVaudodesk-architecture
p1623
aVautoit
p1624
aVautomated-testing
p1625
aVawk
p1626
aVaxiom-microstation-productivity-toolkit
p1627
aVaxiom-productivity-tools
p1628
aVcreatespace
p1629
aVwindows-azure
p1630
aVbalsamiq
p1631
aVbank-reconciliation
p1632
aVbartending
p1633
aVbasic
p1634
aVbigcommerce
p1635
aVbrew
p1636
aVbiography-writing
p1637
aVbirt
p1638
aVbitrix
p1639
aVblack-box-testing
p1640
aVblackberry-jde
p1641
aVblog-commenting
p1642
aVblog-writing
p1643
aVmaxon-bodypaint-3d
p1644
aVboost
p1645
aVturbo-c
p1646
aVbdd
p1647
aVbrand-consulting
p1648
aVbroadvision-clearvale
p1649
aVbrochure-design
p1650
aVansible
p1651
aVbuildium
p1652
aVbmr-writing
p1653
aVmcp
p1654
aVbas-reporting
p1655
aVbusiness-card-design
p1656
aVadobe-business-catalyst
p1657
aVbusiness-writing
p1658
aVmicrosoft-business-intelligence-studio
p1659
aVbusiness-models
p1660
aVclamav
p1661
aVbusiness-process-reengineering
p1662
aVbusiness-it-alignment
p1663
aVborland-c++-builder
p1664
aVerwin
p1665
aVcadence-platform
p1666
aVbpel
p1667
aVtranslation-english-romanian
p1668
aVtranslation-english-russian
p1669
aVcalendar-management
p1670
aVcamtasia
p1671
aVcaricature-drawing
p1672
aVtradestation
p1673
aVcss
p1674
aVcss3
p1675
aVcatalan
p1676
aVperl-catalyst
p1677
aVinsurance-consulting
p1678
aVcavium-octeon-mips64
p1679
aVcharacter-design
p1680
aVchinese
p1681
aVmaxon-cinema-4d
p1682
aVmastercam
p1683
aVcorba
p1684
aVvuforia
p1685
aVpermaculture
p1686
aV3d-animation
p1687
aVcgi
p1688
aVclustering
p1689
aVcomputer-networking
p1690
aVcomputer-repair
p1691
aVastronomy
p1692
aVetabs
p1693
aVconcept-artistry
p1694
aVcvs
p1695
aVdatabase-administration
p1696
aVcomplaint-management
p1697
aVcustom-cms
p1698
aVcontract-drafting
p1699
aVinvision
p1700
aVcorporate-tax
p1701
aVdriver-development
p1702
aVlegal-transcription
p1703
aVbook-cover-design
p1704
aVbower
p1705
aVcurriculum-development
p1706
aVcrm
p1707
aVda-vinci-resolve
p1708
aVdanish
p1709
aVdata-science
p1710
aVdata-center-operations
p1711
aVdata-encoding
p1712
aVdata-entry
p1713
aVdata-structures
p1714
aVdts
p1715
aVdata-warehousing
p1716
aVbentley-microstation
p1717
aVdbms
p1718
aVdatabase-modeling
p1719
aVcomputer-assembly
p1720
aVdevexpress
p1721
aVideablade-deveforce
p1722
aVeyeon-fusion
p1723
aVimage-editing
p1724
aVphoto-editing
p1725
aVdsl-troubleshooting
p1726
aVdj
p1727
aVdcom
p1728
aVdjango-framework
p1729
aVdoctrine-orm
p1730
aVdocument-control
p1731
aVcanva
p1732
aVning-development
p1733
aVboonex-dolphin
p1734
aVdomain-migration
p1735
aVdns
p1736
aVdart
p1737
aVdropbox-api
p1738
aVmicrostation-v8
p1739
aVdrums
p1740
aVdutch
p1741
aVdhcp
p1742
aVe-learning
p1743
aVemail-handling
p1744
aVebay-motors
p1745
aVappery
p1746
aVlinnworks
p1747
aVe-pub-formatting
p1748
aVdelphi
p1749
aVembedded-systems
p1750
aVemc-symmetrix
p1751
aVekiga
p1752
aVhatian-creole
p1753
aVfive9
p1754
aVejb
p1755
aVquickbase
p1756
aVthree-js
p1757
aVq-language
p1758
aVerotica-writing
p1759
aVessay-writing
p1760
aVentity-framwork
p1761
aVeucalyptus-cloud
p1762
aVtrade-show-exhibition-design
p1763
aVextjs
p1764
aVxmpp
p1765
aVxsl
p1766
aVsourcing
p1767
aVez-publish
p1768
aVfacebook-marketing
p1769
aVfbml
p1770
aVsubtitle
p1771
aVftp
p1772
aVfilipino
p1773
aVfinancial-management
p1774
aVfinancial-accounting
p1775
aVingress
p1776
aVpayment-processing
p1777
aVflowcharts
p1778
aVflyer-design
p1779
aVforex-trading
p1780
aVrevit
p1781
aVfranchise-consulting
p1782
aVfrench
p1783
aVkeyboarding
p1784
aVgaap
p1785
aVgenetic-algorithms
p1786
aVevent-espresso
p1787
aVgerman
p1788
aVghostwriting
p1789
aVlinux-system-administration
p1790
aVgo-programming-language
p1791
aVgoogle-analytics-api
p1792
aVchrome-extension
p1793
aVgoogle-spreadsheet
p1794
aVfirebase
p1795
aVgui-design
p1796
aVgrasshoper-virtual-phone
p1797
aVvirtualization
p1798
aVheadus-uvlayout
p1799
aVmaterial-design
p1800
aVsynack
p1801
aVmedical-informatics
p1802
aVhebrew
p1803
aVhindi
p1804
aVhrm
p1805
aVcentral-reservation-systems
p1806
aVhardware-troubleshooting
p1807
aVsitescope
p1808
aVhtml5
p1809
aVhris
p1810
aVhumor-writing
p1811
aVmicrosoft-hyper-v-server
p1812
aVaix
p1813
aVtsm-administration
p1814
aVicd-coding
p1815
aVpanoramic-stitching
p1816
aVmocha
p1817
aVapple-imovie
p1818
aVinfographics
p1819
aViseb
p1820
aVitil
p1821
aVcircuit-design
p1822
aVweb-services-development
p1823
aVipmi
p1824
aVforum-moderation
p1825
aVforum-posting
p1826
aVfraud-mitigation
p1827
aVgenesis-extender-plugin
p1828
aVtcp-ip
p1829
aVsocket-programming
p1830
aVinventory-management
p1831
aVinvestigative-reporting
p1832
aVios-development
p1833
aVims
p1834
aVirs-income-tax-audits
p1835
aViso-9001
p1836
aVitalian
p1837
aVitextsharp
p1838
aVitk
p1839
aVapple-iweb
p1840
aVapple-iwork
p1841
aVontraport
p1842
aVcore-java
p1843
aVjaxb
p1844
aVjdbc
p1845
aVclickfunnels
p1846
aVjfc
p1847
aVjms
p1848
aVjndi
p1849
aVjpa
p1850
aVj2ee
p1851
aVj2me
p1852
aVj2se
p1853
aVsemantic-ui
p1854
aVapache-tiles
p1855
aVkivy
p1856
aVjsp
p1857
aVjstl
p1858
aVautodesk-navisworks
p1859
aVjewelry-design
p1860
aVjinja2
p1861
aVatlassian-jira
p1862
aVjcl
p1863
aVjob-description-writing
p1864
aVregex
p1865
aVjoomla-fabrik
p1866
aVjewish-theology
p1867
aVjncia-junos
p1868
aVtranslation-english-serbian
p1869
aVjekyll
p1870
aVlinq
p1871
aVlocalization
p1872
aVlasso
p1873
aVlean-consulting
p1874
aVliferay
p1875
aVldap
p1876
aVlithium-framework
p1877
aVlogo-design
p1878
aVvlookup-tables
p1879
aVlucene-search
p1880
aVadobe-fireworks
p1881
aVadobe-freehand
p1882
aVmalay
p1883
aVmantis
p1884
aVmapinfo
p1885
aVautodesk-maya
p1886
aVmcafee-saas
p1887
aVmerchant-run
p1888
aVmapi
p1889
aVadobe-livecycle
p1890
aVtranslation-english-slovak
p1891
aVrazor-template-engine
p1892
aVbiztalk-server
p1893
aVukrainian
p1894
aVaxapta
p1895
aVkibana
p1896
aVmicrosoft-hyper-v
p1897
aVisa-server
p1898
aVmicrosoft-sql-ssas
p1899
aVmicrosoft-sql-ce
p1900
aVmicrosoft-sql-ssrs
p1901
aVmicrosoft-sccm
p1902
aVmicrosoft-scvmm
p1903
aVvss
p1904
aVsikuli
p1905
aVperl-mojolicious
p1906
aVrackspace-cloudservers
p1907
aVmpd
p1908
aVautodesk-mudbox
p1909
aVmls-consulting
p1910
aVanimoto
p1911
aVmurals
p1912
aVmidi
p1913
aVsap
p1914
aVelectronic-workbench
p1915
aVexpress-scribe
p1916
aVproduct-development
p1917
aVcnc-programming
p1918
aVpython-numpy
p1919
aVocx
p1920
aVdoubleclick-for-publishers
p1921
aVendnote
p1922
aVorm
p1923
aVadministrative-support
p1924
aVospf
p1925
aVopenbravo-pos
p1926
aVglsl
p1927
aVopen-office
p1928
aVoracle-apex
p1929
aVoracle-obiee-plus
p1930
aVoracle-plsql
p1931
aVweblogic
p1932
aVpackaging-design
p1933
aVtranslation-english-slovenian
p1934
aVpcap
p1935
aVmagazine-layout
p1936
aVsai
p1937
aVparalegal
p1938
aVparallels-virtual-desktop
p1939
aVreceipt-parsing
p1940
aVpashto
p1941
aVpci-compliance
p1942
aVpayment-gateway-integration
p1943
aVpaypal-integration
p1944
aVpayroll-processing
p1945
aVpenetration-testing
p1946
aVpmds
p1947
aVpersian
p1948
aVoracle-pl/sql
p1949
aVplumbing
p1950
aVexpression-engine
p1951
aVportlets
p1952
aVposter-design
p1953
aVcasperjs
p1954
aVpresentations
p1955
aVpcb-design
p1956
aVcontent-writing
p1957
aVplc-programming
p1958
aVproperty-management
p1959
aVpsd-to-mailchimp
p1960
aVpsd-to-xhtml
p1961
aVpsychometric-examinination
p1962
aVeditorial-writing
p1963
aVpunch-home-design-studio-pro
p1964
aVorder-entry
p1965
aVpylons
p1966
aVdynamodb
p1967
aVintuit-quickbooks
p1968
aVr
p1969
aVresume-writing
p1970
aVraphael-js
p1971
aVrapid-miner
p1972
aVclearquest
p1973
aVmandrill
p1974
aVreal-estate-law
p1975
aVrets
p1976
aVrecommender-systems
p1977
aVmusic-producer
p1978
aVrecruiting
p1979
aVsaltstack
p1980
aVgeeklog
p1981
aVrtl
p1982
aVregular-expressions
p1983
aVrest
p1984
aVresearch-papers
p1985
aVresin
p1986
aVratail-sales-management
p1987
aVversion-control
p1988
aVautodesk-revit
p1989
aVrevit-architecture
p1990
aVrhinoservicebus
p1991
aVvideo-ripping
p1992
aVadobe-robohelp
p1993
aVcatholic-theology
p1994
aVromanian
p1995
aVrotoscope
p1996
aVs
p1997
aVsaasu
p1998
aVsabre
p1999
aVsage-peachtree-complete-accounting
p2000
aVoutbound-sales
p2001
aVsmo
p2002
aVsap-bsp
p2003
aVsmartfox-server
p2004
aVsas
p2005
aVsitebuildit
p2006
aVpython-scipy
p2007
aVsdlx
p2008
aVdovecot
p2009
aVlink-building
p2010
aVreceptionist-skills
p2011
aVsection-508-compliance
p2012
aVssh
p2013
aVselling
p2014
aVgemvision-claytrix
p2015
aVssi
p2016
aVsip
p2017
aVsmpp
p2018
aVsilex-framework
p2019
aVsmtp
p2020
aVsnmp
p2021
aV3d-rigging
p2022
aVwriting-slang-style
p2023
aVsaas
p2024
aVmandarin
p2025
aVsqa
p2026
aVsolaris-administration
p2027
aVapache-solr
p2028
aVspanish
p2029
aVspeech-writing
p2030
aVspine-dot-js
p2031
aVspreadsheets
p2032
aVsql-clr
p2033
aVsquid
p2034
aVhylafax
p2035
aVswt
p2036
aVstartup-consulting
p2037
aVsurvey-design
p2038
aVstock-management
p2039
aVning-marketing
p2040
aVbitbucket
p2041
aVstoryboarding
p2042
aVvideo-streaming
p2043
aVfiling
p2044
aVindexing
p2045
aVsubtitling
p2046
aVoracle-sunray
p2047
aVsymbian-development
p2048
aVtagalog
p2049
aVtamil
p2050
aVteaching-english
p2051
aVdrafting
p2052
aVtechnical-documentation
p2053
aVtapi
p2054
aVocr-tesseract
p2055
aVtest-driven-development
p2056
aVtestcomplete
p2057
aVtestng-framework
p2058
aVthai
p2059
aVchicago-manual-of-style
p2060
aVnorwegian
p2061
aVonline-writing
p2062
aVopenflow
p2063
aVtortoise-svn
p2064
aVtrademark-consulting
p2065
aVaccount-management
p2066
aVvideo-conversion
p2067
aVssl
p2068
aVtravel-agent
p2069
aVtsr
p2070
aVuml
p2071
aVunify
p2072
aVurdu
p2073
aVventure-capital-consulting
p2074
aVvlsi
p2075
aVvhdl
p2076
aVvietnamese
p2077
aVvim
p2078
aVvpn
p2079
aVbrowserify
p2080
aVvugen-scripting
p2081
aVvirtuoso
p2082
aVvba
p2083
aVvisualization
p2084
aVvkontake-api
p2085
aVappsheet
p2086
aVvtk
p2087
aVsalary-surveys
p2088
aVbanner-design
p2089
aVscrivener
p2090
aVcrawlers
p2091
aVwebsite-development
p2092
aVseologies
p2093
aVwhite-paper-writing
p2094
aVwicket
p2095
aVwan
p2096
aVwilcom-embroidery-digitization
p2097
aVwind-power-consulting
p2098
aVwindows-movie-maker
p2099
aVwindows-phone-7-development
p2100
aVwindows-template-library
p2101
aVwindows-workflow-foundation
p2102
aVopenstack
p2103
aVopentok-development
p2104
aVoperations-research
p2105
aVoracle-agile
p2106
aVwire-framing
p2107
aVwml-script
p2108
aVx-cart
p2109
aVapple-xcode
p2110
aVxsd
p2111
aVxrumer
p2112
aVxslt
p2113
aVasana
p2114
aVpixologic-zbrush
p2115
aVzk
p2116
aVmarkdown
p2117
aVfire-os-development
p2118
aVacademic-writing
p2119
aVcomputer-skills
p2120
aVcms-development
p2121
aVcontent-moderation
p2122
aVenglish
p2123
aVenglish-grammar
p2124
aVfreelance-marketing
p2125
aVgeneral-office-skills
p2126
aVintellectual-property-law
p2127
aVjson
p2128
aVmanufacturing-design
p2129
aVoffice-administration
p2130
aVtime-management
p2131
aVtyping
p2132
aVuser-experience-design
p2133
aVvb.net
p2134
aVsales-writing
p2135
aVsalesforce.com
p2136
aVsocial-media-optimization
p2137
aVblog-development
p2138
aVwoocommerce
p2139
aVargus
p2140
aVsuitecrm
p2141
aVnosql
p2142
aVphalcon
p2143
aVopsworks
p2144
aVfreshbooks
p2145
aVadobe-lightroom
p2146
aVemail-marketing
p2147
aVemail-deliverability-consulting
p2148
aVhelpdesk-support
p2149
aVmicrosoft-visual-basic
p2150
aVmean-administration
p2151
aVsecurity
p2152
aVtelephone-skills
p2153
aVsemrush
p2154
aVacronis
p2155
aVdocumentum
p2156
aVweb-content-management
p2157
aVgecko
p2158
aVmaximo-asset-management
p2159
aVecommerce-consulting
p2160
aVgoanimate
p2161
aVjournalism-writing
p2162
aVwindows-administration
p2163
aVvoice-over
p2164
aVvoice-talent
p2165
aVbusiness-plans
p2166
aVbotany
p2167
aVgardening
p2168
aVphone-support
p2169
aVontology
p2170
aV3d-scanning
p2171
aV3ds-max
p2172
aV3d-systems
p2173
aVreact-native
p2174
aVabsynth
p2175
aVaccountmate
p2176
aVacpi
p2177
aVacquisitions
p2178
aVadaco
p2179
aVadk
p2180
aVadobe-elearning-suite
p2181
aVadobe-encore
p2182
aVadobe-incopy
p2183
aVafrikaans
p2184
aValgorithm-development
p2185
aVamazon-appstore
p2186
aVamember
p2187
aVamplifiers-and-filters
p2188
aVanalog-electronics
p2189
aVanalytics
p2190
aVandroid
p2191
aVantitrust
p2192
aVapache-kafka
p2193
aVapp-store
p2194
aVapp-usability-analysis
p2195
aVarcserve
p2196
aVarticle-rewriting
p2197
aVasio
p2198
aVassembla
p2199
aVastrophysics
p2200
aVlinguistics
p2201
aVactive-directory
p2202
aVadaptive-algorithms
p2203
aVadobe-analytics
p2204
aVadobe-contribute
p2205
aVadobe-photoshop-lightroom
p2206
aVadobe-premiere
p2207
aVtranslation-tagalog-english
p2208
aVadva
p2209
aVakka
p2210
aValbanian
p2211
aVandroid-sdk
p2212
aVangularjs
p2213
aVanime-studio
p2214
aVantispam-and-antivirus
p2215
aVapplication-lifecycle-management
p2216
aVapplication-programming
p2217
aVapplication-server
p2218
aVarcscene
p2219
aVarm
p2220
aVarticulate
p2221
aVarticulate-engage
p2222
aVartioscad
p2223
aVaudio-design
p2224
aVatom
p2225
aVbanner-ads
p2226
aVbasque
p2227
aVbenefits-law
p2228
aVbengali
p2229
aVbig-data
p2230
aVbiology
p2231
aVbiotechnology
p2232
aVbitcoin
p2233
aVbook-writing
p2234
aVbosnian
p2235
aVbpcs
p2236
aVbroadcast-advertising
p2237
aVbroadcast-engineering
p2238
aVbusiness-management
p2239
aVbusiness-mathematics
p2240
aVcatch-phrases
p2241
aVchildrens-writing
p2242
aVchrome-os
p2243
aVcloudera
p2244
aVauditing
p2245
aVautocad
p2246
aVautomation
p2247
aVapache-avro
p2248
aVbada
p2249
aVbankruptcy
p2250
aVbing-ads
p2251
aVbootstrap
p2252
aVbox.net-development
p2253
aVbulgarian
p2254
aVbulk-marketing
p2255
aVcache-management
p2256
aVcantonese
p2257
aVcapture-nx2
p2258
aVcaspio-administration
p2259
aVcaspio-programming
p2260
aVcdma
p2261
aVclassifieds-posting
p2262
aVclean-technology
p2263
aVclimate-sciences
p2264
aVcloudforge
p2265
aVcloud-security-framework
p2266
aVapache-cloudstack
p2267
aVcollabnet-teamforge
p2268
aVcommercial-lending
p2269
aVcommercials
p2270
aVcommunications
p2271
aVcompliance
p2272
aVcomputational-linguistics
p2273
aVconstant-contact
p2274
aVconsumer-protection
p2275
aVcontent-management-system
p2276
aVcontract-law
p2277
aVcopyright
p2278
aVcorel-ventura
p2279
aVcorporate-strategy
p2280
aVcosmo-rs-chemical-engineering
p2281
aVcosmos-os
p2282
aVcover-design
p2283
aVptc-creo-elements/pro
p2284
aVczech
p2285
aVdata-engineering
p2286
aVdbase-programming
p2287
aVdesktop-support
p2288
aVcompensation
p2289
aVcompiler
p2290
aVcomputer-engineering
p2291
aVcomputer-graphics
p2292
aVconcept-design
p2293
aVconceptshare-development
p2294
aVconstruction-monitoring
p2295
aVcorporate-brand-identity
p2296
aVc-shell
p2297
aVdata-cleansing
p2298
aVdata-ingestion
p2299
aVdata-interpretation
p2300
aVdata-logistics
p2301
aVdata-modeling
p2302
aVdata-protection
p2303
aVdata-sufficiency
p2304
aVdesktop-applications
p2305
aVdhtml
p2306
aVdigital-signal-processing
p2307
aVdnssec
p2308
aVmysql-programming
p2309
aVdigital-electronics
p2310
aVdigital-engineering
p2311
aVdigital-photography
p2312
aVdimdim-development
p2313
aVdisplay-ads
p2314
aVdos
p2315
aVdrones
p2316
aVdvd-studio-pro
p2317
aVebooks
p2318
aVedge
p2319
aVemployment-law
p2320
aVdrawing
p2321
aVe4x
p2322
aVebay-web-services
p2323
aVeconomics
p2324
aVelance
p2325
aVelectronic-design
p2326
aVeloqua
p2327
aVemail-etiquette
p2328
aVengineering-design
p2329
aVenglish-proofreading
p2330
aVenglish-punctuation
p2331
aVenglish-spelling
p2332
aVentrepreneurship
p2333
aVenvironmental-law
p2334
aVexacttarget
p2335
aVsencha-gxt
p2336
aVfamily-law
p2337
aVfeature-writing
p2338
aVfiber-optics
p2339
aVfinal-cut-pro-x
p2340
aVfinancial-forecasting
p2341
aVfinancial-reporting
p2342
aVfinancial-writing
p2343
aVfinite-element-analysis
p2344
aVflash-3d
p2345
aVapache-flume
p2346
aVform-z
p2347
aVfoxpro-administration
p2348
aVfoxpro-programming
p2349
aVfull-text-search-engines
p2350
aVfuzzing
p2351
aVgame-programming
p2352
aVgeolocation
p2353
aVgeomagic
p2354
aVgeospatial
p2355
aVglassware
p2356
aVgoogle-glass
p2357
aVgoogle-go
p2358
aVgoogle-webmaster-central
p2359
aVgoogle-website-optimizer
p2360
aVgraph-databases
p2361
aVhospitality
p2362
aVhp-cloud
p2363
aVibm-smartcloud
p2364
aVicon-design
p2365
aVimaging
p2366
aVimmigration-law
p2367
aVinformation-management
p2368
aVinformix-programming
p2369
aVinstrumentation
p2370
aVneo4j
p2371
aVgenetic-engineering
p2372
aVgeomagic-design-x
p2373
aVgoogle+-marketing
p2374
aVgoogle-glass-sdk
p2375
aVgoogle-play
p2376
aVgprs
p2377
aVgreek
p2378
aVhome-design
p2379
aVhotdog
p2380
aVhuman-sciences
p2381
aVibm-db2-programming
p2382
aVibm-watson
p2383
aVindonesian
p2384
aVin-game-advertising
p2385
aVintegrated-circuits
p2386
aVinternational-law
p2387
aVinvitation-design
p2388
aVit-management
p2389
aVjavanese
p2390
aVjetpack
p2391
aVjimdo
p2392
aVinternet-security
p2393
aVinvestment-research
p2394
aVjava-ee
p2395
aVjava-me
p2396
aVjob-costing
p2397
aVjoomla-migration
p2398
aVjsharp
p2399
aVkaizen
p2400
aVkannada
p2401
aVkernel
p2402
aVkey/value-stores
p2403
aVkindle-fire
p2404
aVkindle-fire-apps
p2405
aVkvm
p2406
aVlabel-and-package-design
p2407
aVlabwindows/cvi
p2408
aVlanding-pages
p2409
aVlatvian
p2410
aVlegal-consulting
p2411
aVleptonica
p2412
aVletter-writing
p2413
aVlibcurl
p2414
aVlicensing
p2415
aVtranslation-malay-english
p2416
aVlinear-programming
p2417
aVloyalty-marketing
p2418
aVmakerbot
p2419
aVmanageengine
p2420
aVmanagement-skills
p2421
aVmanufacturing
p2422
aVmapr
p2423
aVmapreduce
p2424
aVmarathi
p2425
aVmaterials-engineering
p2426
aVmathematics
p2427
aVmedical-law
p2428
aVmicrosoft-access-programming
p2429
aVmicrosoft-expression-studio
p2430
aVmicrosoft-outlook
p2431
aVmicrosoft-server
p2432
aVmicrosoft-windows-server
p2433
aVmobile-advertising
p2434
aVmobile-development-framework
p2435
aVmovabletype
p2436
aVamazon-mws
p2437
aVmyspace-api
p2438
aVlitigation
p2439
aVmacedonian
p2440
aVmac-osx-administration
p2441
aVadobe-director
p2442
aVmalayalam
p2443
aVmalware
p2444
aVmechanical-design
p2445
aVmicrosoft-commerce-server
p2446
aVmicrosoft-dynamics-development
p2447
aVmicrosoft-office
p2448
aVmining-engineering
p2449
aVmobile-app-testing
p2450
aVmobile-programming
p2451
aVmoonfruit-sitemaker
p2452
aVmusic
p2453
aVnanotechnology
p2454
aVnetfabb
p2455
aVnetwork-analysis
p2456
aVnetwork-design
p2457
aVnetwork-engineering
p2458
aVnetwork-monitoring
p2459
aVnetwork-pentesting
p2460
aVnetwork-programming
p2461
aVnextengine
p2462
aVnon-fiction-writing
p2463
aVnuke
p2464
aVobject-oriented-php
p2465
aVocr-algorithms
p2466
aVoops
p2467
aVoovoo-development
p2468
aVoperations-management
p2469
aVoracle-administration
p2470
aVoracle-crm-on-demand
p2471
aVoracle-financials-applications
p2472
aVoracle-fusion-applications
p2473
aVoracle-patching
p2474
aVoracle-policy-automation
p2475
aVoracle-programming
p2476
aVoracle-taleo
p2477
aVoracle-team-productivity-center
p2478
aVoracle-transportation-management
p2479
aVoracle-unified-method
p2480
aVoracle-upgrade
p2481
aVorganizational-behavior
p2482
aVpbworks-development
p2483
aVpersonal-development
p2484
aVpligg
p2485
aVrapidworks
p2486
aVoracle-atg-web-commerce
p2487
aVoracle-data-guard
p2488
aVoracle-demantra
p2489
aVoracle-endeca
p2490
aVoracle-global-trade-management
p2491
aVoracle-rightnow
p2492
aVoracle-user-productivity-kit
p2493
aVpalm
p2494
aVpetroleum-engineering
p2495
aVphysics
p2496
aVpig
p2497
aVplatform-migration
p2498
aVproject-management-professional
p2499
aVposterous
p2500
aVpredictive-analytics
p2501
aVprint-advertising
p2502
aVproduct-descriptions
p2503
aVproduct-design
p2504
aVproduct-liability
p2505
aVproject-planning
p2506
aVproposal-writing
p2507
aVprotools
p2508
aVpunjabi
p2509
aVqa-engineering
p2510
aVrackspace
p2511
aVpostgresql-programming
p2512
aVprivacy
p2513
aVprivate-clouds
p2514
aVproject-scheduling
p2515
aVproperty-development
p2516
aVprotoshare
p2517
aVpsd2cms
p2518
aVpublishing-fundamentals
p2519
aVqa-management
p2520
aVrapid-prototyping
p2521
aVrelational-databases
p2522
aVremote-sensing
p2523
aVreprap
p2524
aVreviews
p2525
aVr-hadoop
p2526
aVrtml
p2527
aVsap-hana
p2528
aVsap-programming
p2529
aVsap-solution-manager
p2530
aVsavant3
p2531
aVscalable-transaction-processing
p2532
aVsecurity-engineering
p2533
aVsecurity-infrastructure
p2534
aVtranslation-chinese-english
p2535
aVreal-time-stream-processing
p2536
aVrecords-management
p2537
aVresearch
p2538
aVroot-cause-analysis
p2539
aVrtos
p2540
aVsage-erp-accpac
p2541
aVsales-letters
p2542
aVscientific-computation
p2543
aVscientific-research
p2544
aVscrumworks
p2545
aVsecurity-analysis
p2546
aVsemiconductor
p2547
aVserbian
p2548
aVshopify-templates
p2549
aVsimplified-chinese
p2550
aVsocial-network-administration
p2551
aVsocial-networking-development
p2552
aVstationery-design
p2553
aVstream-processing
p2554
aVsystem-analysis
p2555
aVtax-law
p2556
aVtcl/tk
p2557
aVtechnical-recruiter
p2558
aVseomoz
p2559
aVservlet
p2560
aVslogans
p2561
aVslovenian
p2562
aVsoftware-documentation
p2563
aVsports-writing
p2564
aVsqlite-programming
p2565
aVsql-programming
p2566
aVsqoop
p2567
aVstatistical-computing
p2568
aVsticker-design
p2569
aVstratasys
p2570
aVstrongmail
p2571
aVstructural-analysis
p2572
aVsungard
p2573
aVswift
p2574
aVsybase-programming
p2575
aVsystem-administration
p2576
aVsystem-programming
p2577
aVtelecommunications-engineering
p2578
aVtestlodge
p2579
aVtestopia
p2580
aVtizen
p2581
aVtqm
p2582
aVtransaction-processing
p2583
aVtranslation-brazilian-portuguese-english
p2584
aVtelugu
p2585
aVtemplates
p2586
aVtesseract
p2587
aVtextile-engineering
p2588
aVtrade-law
p2589
aVtranslation-english-mandarin
p2590
aVtranslation-english-tagalog
p2591
aVtranslation-english-ukrainian
p2592
aVtranslation-mandarin-english
p2593
aVu.s.-culture
p2594
aVvideography
p2595
aVvideo-publishing
p2596
aVvirtual-currency
p2597
aVvirtual-machine
p2598
aVvisual-arts
p2599
aVvoldemort
p2600
aVwan-optimization
p2601
aVwebapp-pentesting
p2602
aVweb-hosting
p2603
aVweb-programming
p2604
aVweb-services
p2605
aVwiki
p2606
aVwikipedia
p2607
aVxamarin
p2608
aVxenforo
p2609
aVtravel-planning
p2610
aVtrusts-estates-and-wills
p2611
aVubercart
p2612
aVunified-threat-management
p2613
aVunix
p2614
aVusb-electronics
p2615
aVvideo-upload
p2616
aVvisual-basic
p2617
aVvtiger-development
p2618
aVweb-analytics
p2619
aVweb-host-manager
p2620
aVwelsh
p2621
aVwi-fi
p2622
aVwimax
p2623
aVwindows-mobile
p2624
aVwindows-vista
p2625
aVword-of-mouth
p2626
aVwriting
p2627
aVwu
p2628
aVado
p2629
aVyahoo-developer-skills
p2630
aVyaml
p2631
aVyola
p2632
aVactionscript-2
p2633
aVadobe-imageready
p2634
aVamazon-ec2
p2635
aVauthorize.net
p2636
aVawt
p2637
aVaxure
p2638
aVbrand-marketing
p2639
aVbudgeting
p2640
aVcad-design
p2641
aVcartography
p2642
aVcassandra
p2643
aVcentral-desktop
p2644
aVcics
p2645
aVclearbooks
p2646
aVcom
p2647
aVcorel-paint-shop-pro
p2648
aVcrystal-reports
p2649
aVdata-analysis
p2650
aVdbase
p2651
aVdejavu
p2652
aVdojo
p2653
aVedi
p2654
aVtranslation-croatian-english
p2655
aVerp
p2656
aVetl
p2657
aVfacebook-api
p2658
aVfbjs
p2659
aVfiction-writing
p2660
aVfoursquare-api
p2661
aVfinale
p2662
aVgis
p2663
aVgood-data
p2664
aVgoogle-adwords-api
p2665
aVgoogle-plus-api
p2666
aVgwt
p2667
aVhp-nmc
p2668
aVhp-qtp
p2669
aVibm-db2
p2670
aViis
p2671
aVinformix
p2672
aVjd-edwards
p2673
aVjomsocial
p2674
aVjoomla
p2675
aVtranslation-czech-english
p2676
aVkitchen-draw
p2677
aVlightwave
p2678
aVlinkedin-api
p2679
aVlogistics
p2680
aVmanual-testing
p2681
aVmfc
p2682
aVmicrosoft-access
p2683
aVmicrosoft-dynamics
p2684
aVmicrosoft-sql-server-development
p2685
aVmrtg
p2686
aVmvvm
p2687
aVmysql
p2688
aVnetwork-administration
p2689
aVoltp
p2690
aVoop
p2691
aVoracle-siebel-crm
p2692
aVpeoplesoft-administration
p2693
aVpeoplesoft-development
p2694
aVpostfix
p2695
aVpostgresql
p2696
aVproe
p2697
aVq-os
p2698
aVqscad
p2699
aVquarkxpress
p2700
aVrhce
p2701
aVrhel
p2702
aVrmi
p2703
aVrup
p2704
aVsem
p2705
aVsketching
p2706
aVslovak
p2707
aVsqlite
p2708
aVssis
p2709
aVstl
p2710
aVsugar-crm
p2711
aVsvn
p2712
aVtranslation-afrikaans-english
p2713
aVtranslation-albanian-english
p2714
aVtranslation-arabic-english
p2715
aVtranslation-armenian-english
p2716
aVtranslation-bengali-english
p2717
aVtranslation-bulgarian-english
p2718
aVtranslation-english-afrikaans
p2719
aVtranslation-english-albanian
p2720
aVtranslation-english-arabic
p2721
aVtranslation-english-armenian
p2722
aVtranslation-english-belariusan
p2723
aVtranslation-english-bengali
p2724
aVtranslation-english-bulgarian
p2725
aVtranslation-english-catalan
p2726
aVtranslation-english-chinese
p2727
aVtranslation-english-croatian
p2728
aVtranslation-english-czech
p2729
aVtranslation-english-danish
p2730
aVtranslation-english-dutch
p2731
aVtranslation-english-estonian
p2732
aVtranslation-english-filipino
p2733
aVtranslation-english-finnish
p2734
aVtranslation-english-french
p2735
aVtranslation-english-galician
p2736
aVtranslation-english-georgian
p2737
aVtranslation-english-german
p2738
aVtranslation-english-gujarati
p2739
aVtranslation-english-haitian-creole
p2740
aVtranslation-english-hindi
p2741
aVtranslation-english-hungarian
p2742
aVtranslation-english-indonesian
p2743
aVtranslation-english-irish
p2744
aVtranslation-english-italian
p2745
aVtranslation-english-japanese
p2746
aVtranslation-english-kannada
p2747
aVtranslation-english-korean
p2748
aVtranslation-english-latin
p2749
aVtranslation-english-latvian
p2750
aVtranslation-english-lithuanian
p2751
aVtranslation-english-macedonian
p2752
aVtranslation-english-malay
p2753
aVtranslation-english-maltese
p2754
aVtranslation-english-norwegian
p2755
aVtranslation-english-persian
p2756
aVtranslation-english-polish
p2757
aVtranslation-english-spanish
p2758
aVtranslation-english-swahili
p2759
aVtranslation-english-swedish
p2760
aVtranslation-english-tamil
p2761
aVtranslation-english-telugu
p2762
aVtranslation-english-thai
p2763
aVtranslation-english-turkish
p2764
aVtranslation-english-urdu
p2765
aVtranslation-english-welsh
p2766
aVtranslation-english-yiddish
p2767
aVtranslation-estonian-english
p2768
aVtranslation-filipino-english
p2769
aVtranslation-finnish-english
p2770
aVtranslation-french-english
p2771
aVtranslation-french-german
p2772
aVtranslation-french-spanish
p2773
aVtranslation-galician-english
p2774
aVtranslation-georgian-english
p2775
aVtranslation-german-english
p2776
aVtranslation-german-french
p2777
aVtranslation-german-polish
p2778
aVtranslation-greek-english
p2779
aVtranslation-gujarati-english
p2780
aVtranslation-haitian-creole-english
p2781
aVtranslation-hebrew-english
p2782
aVtranslation-hindi-english
p2783
aVtranslation-hungarian-english
p2784
aVtranslation-icelandic-english
p2785
aVtranslation-indonesian-english
p2786
aVtranslation-irish-english
p2787
aVtranslation-italian-english
p2788
aVtranslation-japanese-english
p2789
aVtranslation-kannada-english
p2790
aVtranslation-korean-english
p2791
aVtranslation-latin-english
p2792
aVtranslation-latvian-english
p2793
aVtranslation-lithuanian-english
p2794
aVtranslation-macedonian-english
p2795
aVtranslation-maltese-english
p2796
aVtranslation-norwegian-english
p2797
aVtranslation-persian-english
p2798
aVtranslation-polish-english
p2799
aVtranslation-polish-german
p2800
aVtranslation-romanian-english
p2801
aVtranslation-russian-english
p2802
aVtranslation-serbian-english
p2803
aVtranslation-slovak-english
p2804
aVtranslation-slovenian-english
p2805
aVtranslation-spanish-english
p2806
aVtranslation-spanish-french
p2807
aVtranslation-swahili-english
p2808
aVtranslation-tamil-english
p2809
aVtranslation-telugu-english
p2810
aVtranslation-thai-english
p2811
aVtranslation-turkish-english
p2812
aVtranslation-ukrainian-english
p2813
aVtranslation-urdu-english
p2814
aVtranslation-vietnamese-english
p2815
aVtranslation-welsh-english
p2816
aVtranslation-yiddish-english
p2817
aVtwilio-api
p2818
aVvsam
p2819
aVvtiger
p2820
aVwcf
p2821
aVweb-os-app-development
p2822
aVwhm
p2823
aVwinautomation-scripting
p2824
aVwpf
p2825
aVmetatrader-4-mt4
p2826
aVxcelsius
p2827
aVyoutube-api
p2828
aVyui
p2829
aVadvanced-business-application-programming-abap
p2830
aVad-planning-and-buying
p2831
aVarts-and-crafts
p2832
aVcomputer-aided-manufacturing-cam
p2833
aVcisco-certified-design-associate-ccda
p2834
aVcisco-certified-design-expert-ccde
p2835
aVcisco-certified-design-professional-ccdp
p2836
aVcisco-certified-entry-networking-technician-ccent
p2837
aVcisco-certified-internetwork-expert-ccie
p2838
aVcisco-certified-network-associate-ccna
p2839
aVcertified-information-systems-security-professional-cissp
p2840
aVcovers-and-packaging
p2841
aVcreative-and-talent
p2842
aVelliptic-curve-cryptography-ecc
p2843
aVformat-and-layout
p2844
aVjob-definition-format-jdf
p2845
aVyahoo-store
p2846
aVmicrosoft-certified-information-technology-professional-mcitp
p2847
aVmicrosoft-message-queue-server-mmsq
p2848
aVmicrosoft-transaction-server-mts
p2849
aVmulti-level-marketing-mlm
p2850
aVplc-and-scada
p2851
aVresource-description-framework-rdf
p2852
aVyahoo-advertising-solutions
p2853
aVrpg-os400
p2854
aVscripts-and-utilities
p2855
aVsoftware-defined-networking-sdn
p2856
a.